target datalayout = "e-m:e-p270:32:32-p271:32:32-p272:64:64-i64:64-i128:128-f80:128-n8:16:32:64-S128"
target triple = "x86_64-pc-linux-gnu"

%struct.pm_token_t = type { i32, ptr, ptr }
%struct.pm_parser = type { i32, i32, i32, i32, i32, i32, i32, %struct.anon, ptr, ptr, %struct.pm_token_t, %struct.pm_token_t, ptr, ptr, %struct.pm_list_t, %struct.pm_list_t, %struct.pm_location_t, %struct.pm_list_t, %struct.pm_list_t, ptr, ptr, ptr, ptr, ptr, ptr, ptr, %struct.pm_string_t, %struct.pm_constant_pool_t, %struct.pm_newline_list_t, i16, %struct.pm_string_t, i32, ptr, ptr, i32, i8, i8, i8, i8, i8, i8, i8, i8, i8, i8, i8, i8, i8 }
%struct.anon = type { ptr, [4 x %struct.pm_lex_mode], i64 }
%struct.pm_lex_mode = type { i32, %union.anon, ptr }
%union.anon = type { %struct.anon.3 }
%struct.anon.3 = type { %struct.pm_heredoc_lex_mode_t, ptr, ptr, i8 }
%struct.pm_heredoc_lex_mode_t = type { ptr, i64, i32, i32 }
%struct.pm_location_t = type { ptr, ptr }
%struct.pm_list_t = type { i64, ptr, ptr }
%struct.pm_constant_pool_t = type { ptr, ptr, i32, i32 }
%struct.pm_newline_list_t = type { ptr, i64, i64, ptr }
%struct.pm_string_t = type { ptr, i64, i32 }

@rb_cPrismToken = external global i64, align 8
@rb_cPrismLocation = external global i64, align 8

; Function Attrs: inlinehint nounwind sspstrong uwtable
define internal i64 @rb_ull2num_inline(i64 noundef %0) #4 {
  %2 = alloca i64, align 8
  %3 = alloca i64, align 8
  store i64 %0, ptr %3, align 8, !tbaa !1315
  %4 = load i64, ptr %3, align 8, !tbaa !1315
  %5 = icmp ult i64 %4, 4611686018427387904
  br i1 %5, label %6, label %9

6:                                                ; preds = %1
  %7 = load i64, ptr %3, align 8, !tbaa !1315
  %8 = call i64 @RB_INT2FIX(i64 noundef %7) #14
  store i64 %8, ptr %2, align 8
  br label %12

9:                                                ; preds = %1
  %10 = load i64, ptr %3, align 8, !tbaa !1315
  %11 = call i64 @rb_ull2inum(i64 noundef %10)
  store i64 %11, ptr %2, align 8
  br label %12

12:                                               ; preds = %9, %6
  %13 = load i64, ptr %2, align 8
  ret i64 %13
}

; Function Attrs: inlinehint nounwind sspstrong willreturn memory(none) uwtable
define internal i64 @RB_INT2FIX(i64 noundef %0) #8 {
  %2 = alloca i64, align 8
  %3 = alloca i64, align 8
  %4 = alloca i64, align 8
  %5 = alloca i64, align 8
  %6 = alloca i64, align 8
  %7 = alloca i64, align 8
  store i64 %0, ptr %2, align 8, !tbaa !15
  call void @llvm.lifetime.start.p0(i64 8, ptr %3) #13
  %8 = load i64, ptr %2, align 8, !tbaa !15
  store i64 %8, ptr %3, align 8, !tbaa !15
  call void @llvm.lifetime.start.p0(i64 8, ptr %4) #13
  %9 = load i64, ptr %3, align 8, !tbaa !15
  %10 = shl i64 %9, 1
  %11 = add i64 %10, 1
  store i64 %11, ptr %4, align 8, !tbaa !15
  call void @llvm.lifetime.start.p0(i64 8, ptr %5) #13
  %12 = load i64, ptr %4, align 8, !tbaa !15
  store i64 %12, ptr %5, align 8, !tbaa !15
  call void @llvm.lifetime.start.p0(i64 8, ptr %6) #13
  %13 = load i64, ptr %5, align 8, !tbaa !15
  store i64 %13, ptr %6, align 8, !tbaa !15
  call void @llvm.lifetime.start.p0(i64 8, ptr %7) #13
  %14 = load i64, ptr %6, align 8, !tbaa !15
  store i64 %14, ptr %7, align 8, !tbaa !15
  %15 = load i64, ptr %7, align 8, !tbaa !15
  call void @llvm.lifetime.end.p0(i64 8, ptr %7) #13
  call void @llvm.lifetime.end.p0(i64 8, ptr %6) #13
  call void @llvm.lifetime.end.p0(i64 8, ptr %5) #13
  call void @llvm.lifetime.end.p0(i64 8, ptr %4) #13
  call void @llvm.lifetime.end.p0(i64 8, ptr %3) #13
  ret i64 %15
}

; Function Attrs: nounwind sspstrong uwtable
define internal i64 @pm_location_new(ptr noundef %0, ptr noundef %1, ptr noundef %2, i64 noundef %3, i1 noundef zeroext %4) #0 {
  %6 = alloca i64, align 8
  %7 = alloca ptr, align 8
  %8 = alloca ptr, align 8
  %9 = alloca ptr, align 8
  %10 = alloca i64, align 8
  %11 = alloca i8, align 1
  %12 = alloca [3 x i64], align 16
  %13 = alloca i64, align 8
  store ptr %0, ptr %7, align 8, !tbaa !7
  store ptr %1, ptr %8, align 8, !tbaa !27
  store ptr %2, ptr %9, align 8, !tbaa !27
  store i64 %3, ptr %10, align 8, !tbaa !15
  %14 = zext i1 %4 to i8
  store i8 %14, ptr %11, align 1, !tbaa !17
  %15 = load i8, ptr %11, align 1, !tbaa !17, !range !25, !noundef !26
  %16 = trunc i8 %15 to i1
  br i1 %16, label %17, label %39

17:                                               ; preds = %5
  call void @llvm.lifetime.start.p0(i64 24, ptr %12) #13
  %18 = load i64, ptr %10, align 8, !tbaa !15
  store i64 %18, ptr %12, align 8, !tbaa !15
  %19 = getelementptr inbounds i64, ptr %12, i64 1
  %20 = load ptr, ptr %8, align 8, !tbaa !27
  %21 = load ptr, ptr %7, align 8, !tbaa !7
  %22 = getelementptr inbounds nuw %struct.pm_parser, ptr %21, i32 0, i32 8
  %23 = load ptr, ptr %22, align 8, !tbaa !28
  %24 = ptrtoint ptr %20 to i64
  %25 = ptrtoint ptr %23 to i64
  %26 = sub i64 %24, %25
  %27 = call i64 @RB_INT2FIX(i64 noundef %26) #14
  store i64 %27, ptr %19, align 8, !tbaa !15
  %28 = getelementptr inbounds i64, ptr %12, i64 2
  %29 = load ptr, ptr %9, align 8, !tbaa !27
  %30 = load ptr, ptr %8, align 8, !tbaa !27
  %31 = ptrtoint ptr %29 to i64
  %32 = ptrtoint ptr %30 to i64
  %33 = sub i64 %31, %32
  %34 = call i64 @RB_INT2FIX(i64 noundef %33) #14
  store i64 %34, ptr %28, align 8, !tbaa !15
  %35 = getelementptr inbounds [3 x i64], ptr %12, i64 0, i64 0
  %36 = load i64, ptr @rb_cPrismLocation, align 8, !tbaa !15
  %37 = call i64 @rb_class_new_instance(i32 noundef 3, ptr noundef %35, i64 noundef %36)
  %38 = call i64 @rb_obj_freeze(i64 noundef %37)
  store i64 %38, ptr %6, align 8
  call void @llvm.lifetime.end.p0(i64 24, ptr %12) #13
  br label %58

39:                                               ; preds = %5
  call void @llvm.lifetime.start.p0(i64 8, ptr %13) #13
  %40 = load ptr, ptr %8, align 8, !tbaa !27
  %41 = load ptr, ptr %7, align 8, !tbaa !7
  %42 = getelementptr inbounds nuw %struct.pm_parser, ptr %41, i32 0, i32 8
  %43 = load ptr, ptr %42, align 8, !tbaa !28
  %44 = ptrtoint ptr %40 to i64
  %45 = ptrtoint ptr %43 to i64
  %46 = sub i64 %44, %45
  %47 = shl i64 %46, 32
  %48 = load ptr, ptr %9, align 8, !tbaa !27
  %49 = load ptr, ptr %8, align 8, !tbaa !27
  %50 = ptrtoint ptr %48 to i64
  %51 = ptrtoint ptr %49 to i64
  %52 = sub i64 %50, %51
  %53 = trunc i64 %52 to i32
  %54 = zext i32 %53 to i64
  %55 = or i64 %47, %54
  store i64 %55, ptr %13, align 8, !tbaa !15
  %56 = load i64, ptr %13, align 8, !tbaa !15
  %57 = call i64 @rb_ull2num_inline(i64 noundef %56)
  store i64 %57, ptr %6, align 8
  call void @llvm.lifetime.end.p0(i64 8, ptr %13) #13
  br label %58

58:                                               ; preds = %39, %17
  %59 = load i64, ptr %6, align 8
  ret i64 %59
}

; Function Attrs: nounwind sspstrong uwtable
define hidden i64 @pm_token_new(ptr noundef %0, ptr noundef %1, ptr noundef %2, i64 noundef %3, i1 noundef zeroext %4) #0 {
  %6 = alloca ptr, align 8
  %7 = alloca ptr, align 8
  %8 = alloca ptr, align 8
  %9 = alloca i64, align 8
  %10 = alloca i8, align 1
  %11 = alloca i64, align 8
  %12 = alloca i64, align 8
  %13 = alloca i64, align 8
  %14 = alloca [4 x i64], align 16
  %15 = alloca i64, align 8
  store ptr %0, ptr %6, align 8, !tbaa !7
  store ptr %1, ptr %7, align 8, !tbaa !12
  store ptr %2, ptr %8, align 8, !tbaa !13
  store i64 %3, ptr %9, align 8, !tbaa !15
  %16 = zext i1 %4 to i8
  store i8 %16, ptr %10, align 1, !tbaa !17
  call void @llvm.lifetime.start.p0(i64 8, ptr %11) #13
  %17 = load ptr, ptr %7, align 8, !tbaa !12
  %18 = getelementptr inbounds nuw %struct.pm_token_t, ptr %17, i32 0, i32 0
  %19 = load i32, ptr %18, align 8, !tbaa !19
  %20 = call ptr @pm_token_type_name(i32 noundef %19)
  %21 = call i64 @rb_intern(ptr noundef %20)
  store i64 %21, ptr %11, align 8, !tbaa !15
  call void @llvm.lifetime.start.p0(i64 8, ptr %12) #13
  %22 = load ptr, ptr %6, align 8, !tbaa !7
  %23 = load ptr, ptr %7, align 8, !tbaa !12
  %24 = getelementptr inbounds nuw %struct.pm_token_t, ptr %23, i32 0, i32 1
  %25 = load ptr, ptr %24, align 8, !tbaa !23
  %26 = load ptr, ptr %7, align 8, !tbaa !12
  %27 = getelementptr inbounds nuw %struct.pm_token_t, ptr %26, i32 0, i32 2
  %28 = load ptr, ptr %27, align 8, !tbaa !24
  %29 = load i64, ptr %9, align 8, !tbaa !15
  %30 = load i8, ptr %10, align 1, !tbaa !17, !range !25, !noundef !26
  %31 = trunc i8 %30 to i1
  %32 = call i64 @pm_location_new(ptr noundef %22, ptr noundef %25, ptr noundef %28, i64 noundef %29, i1 noundef zeroext %31)
  store i64 %32, ptr %12, align 8, !tbaa !15
  call void @llvm.lifetime.start.p0(i64 8, ptr %13) #13
  br i1 false, label %33, label %44

33:                                               ; preds = %5
  %34 = load ptr, ptr %7, align 8, !tbaa !12
  %35 = getelementptr inbounds nuw %struct.pm_token_t, ptr %34, i32 0, i32 2
  %36 = load ptr, ptr %35, align 8, !tbaa !24
  %37 = load ptr, ptr %7, align 8, !tbaa !12
  %38 = getelementptr inbounds nuw %struct.pm_token_t, ptr %37, i32 0, i32 1
  %39 = load ptr, ptr %38, align 8, !tbaa !23
  %40 = ptrtoint ptr %36 to i64
  %41 = ptrtoint ptr %39 to i64
  %42 = sub i64 %40, %41
  %43 = call i1 @llvm.is.constant.i64(i64 %42)
  br label %44

44:                                               ; preds = %33, %5
  %45 = phi i1 [ false, %5 ], [ %43, %33 ]
  %46 = select i1 %45, ptr @rb_enc_str_new_static, ptr @rb_enc_str_new
  %47 = load ptr, ptr %7, align 8, !tbaa !12
  %48 = getelementptr inbounds nuw %struct.pm_token_t, ptr %47, i32 0, i32 1
  %49 = load ptr, ptr %48, align 8, !tbaa !23
  %50 = load ptr, ptr %7, align 8, !tbaa !12
  %51 = getelementptr inbounds nuw %struct.pm_token_t, ptr %50, i32 0, i32 2
  %52 = load ptr, ptr %51, align 8, !tbaa !24
  %53 = load ptr, ptr %7, align 8, !tbaa !12
  %54 = getelementptr inbounds nuw %struct.pm_token_t, ptr %53, i32 0, i32 1
  %55 = load ptr, ptr %54, align 8, !tbaa !23
  %56 = ptrtoint ptr %52 to i64
  %57 = ptrtoint ptr %55 to i64
  %58 = sub i64 %56, %57
  %59 = load ptr, ptr %8, align 8, !tbaa !13
  %60 = call i64 %46(ptr noundef %49, i64 noundef %58, ptr noundef %59)
  store i64 %60, ptr %13, align 8, !tbaa !15
  %61 = load i8, ptr %10, align 1, !tbaa !17, !range !25, !noundef !26
  %62 = trunc i8 %61 to i1
  br i1 %62, label %63, label %66

63:                                               ; preds = %44
  %64 = load i64, ptr %13, align 8, !tbaa !15
  %65 = call i64 @rb_obj_freeze(i64 noundef %64)
  br label %66

66:                                               ; preds = %63, %44
  call void @llvm.lifetime.start.p0(i64 32, ptr %14) #13
  %67 = load i64, ptr %9, align 8, !tbaa !15
  store i64 %67, ptr %14, align 8, !tbaa !15
  %68 = getelementptr inbounds i64, ptr %14, i64 1
  %69 = load i64, ptr %11, align 8, !tbaa !15
  %70 = call i64 @rb_id2sym(i64 noundef %69)
  store i64 %70, ptr %68, align 8, !tbaa !15
  %71 = getelementptr inbounds i64, ptr %14, i64 2
  %72 = load i64, ptr %13, align 8, !tbaa !15
  store i64 %72, ptr %71, align 8, !tbaa !15
  %73 = getelementptr inbounds i64, ptr %14, i64 3
  %74 = load i64, ptr %12, align 8, !tbaa !15
  store i64 %74, ptr %73, align 8, !tbaa !15
  call void @llvm.lifetime.start.p0(i64 8, ptr %15) #13
  %75 = getelementptr inbounds [4 x i64], ptr %14, i64 0, i64 0
  %76 = load i64, ptr @rb_cPrismToken, align 8, !tbaa !15
  %77 = call i64 @rb_class_new_instance(i32 noundef 4, ptr noundef %75, i64 noundef %76)
  store i64 %77, ptr %15, align 8, !tbaa !15
  %78 = load i8, ptr %10, align 1, !tbaa !17, !range !25, !noundef !26
  %79 = trunc i8 %78 to i1
  br i1 %79, label %80, label %83

80:                                               ; preds = %66
  %81 = load i64, ptr %15, align 8, !tbaa !15
  %82 = call i64 @rb_obj_freeze(i64 noundef %81)
  br label %83

83:                                               ; preds = %80, %66
  %84 = load i64, ptr %15, align 8, !tbaa !15
  call void @llvm.lifetime.end.p0(i64 8, ptr %15) #13
  call void @llvm.lifetime.end.p0(i64 32, ptr %14) #13
  call void @llvm.lifetime.end.p0(i64 8, ptr %13) #13
  call void @llvm.lifetime.end.p0(i64 8, ptr %12) #13
  call void @llvm.lifetime.end.p0(i64 8, ptr %11) #13
  ret i64 %84
}