; Function Attrs: nounwind sspstrong uwtable
define hidden i64 @pm_token_new(ptr noundef readonly captures(none) %0, ptr noundef readonly captures(none) %1, ptr noundef %2, i64 noundef %3, i1 noundef zeroext %4) local_unnamed_addr #0 {
  %6 = alloca [3 x i64], align 16
  %7 = alloca [4 x i64], align 16
  %8 = load i32, ptr %1, align 8, !tbaa !7
  %9 = tail call ptr @pm_token_type_name(i32 noundef %8) #5
  %10 = tail call i64 @rb_intern(ptr noundef %9) #5
  %11 = getelementptr inbounds nuw i8, ptr %1, i64 8
  %12 = load ptr, ptr %11, align 8, !tbaa !14
  %13 = getelementptr inbounds nuw i8, ptr %1, i64 16
  %14 = load ptr, ptr %13, align 8, !tbaa !15
  br i1 %4, label %15, label %32

15:                                               ; preds = %5
  call void @llvm.lifetime.start.p0(i64 24, ptr nonnull %6) #5
  store i64 %3, ptr %6, align 16, !tbaa !16
  %16 = getelementptr inbounds nuw i8, ptr %6, i64 8
  %17 = getelementptr inbounds nuw i8, ptr %0, i64 304
  %18 = load ptr, ptr %17, align 8, !tbaa !18
  %19 = ptrtoint ptr %12 to i64
  %20 = ptrtoint ptr %18 to i64
  %21 = sub i64 %19, %20
  %22 = shl i64 %21, 1
  %23 = or disjoint i64 %22, 1
  store i64 %23, ptr %16, align 8, !tbaa !16
  %24 = getelementptr inbounds nuw i8, ptr %6, i64 16
  %25 = ptrtoint ptr %14 to i64
  %26 = sub i64 %25, %19
  %27 = shl i64 %26, 1
  %28 = or disjoint i64 %27, 1
  store i64 %28, ptr %24, align 16, !tbaa !16
  %29 = load i64, ptr @rb_cPrismLocation, align 8, !tbaa !16
  %30 = call i64 @rb_class_new_instance(i32 noundef 3, ptr noundef nonnull %6, i64 noundef %29) #5
  %31 = call i64 @rb_obj_freeze(i64 noundef %30) #5
  call void @llvm.lifetime.end.p0(i64 24, ptr nonnull %6) #5
  br label %pm_location_new.exit

32:                                               ; preds = %5
  %33 = getelementptr inbounds nuw i8, ptr %0, i64 304
  %34 = load ptr, ptr %33, align 8, !tbaa !18
  %35 = ptrtoint ptr %12 to i64
  %36 = ptrtoint ptr %34 to i64
  %37 = sub i64 %35, %36
  %38 = shl i64 %37, 32
  %39 = ptrtoint ptr %14 to i64
  %40 = sub i64 %39, %35
  %41 = and i64 %40, 4294967295
  %42 = or disjoint i64 %38, %41
  %43 = icmp ult i64 %38, 4611686018427387904
  br i1 %43, label %44, label %47

44:                                               ; preds = %32
  %45 = shl nuw nsw i64 %42, 1
  %46 = or disjoint i64 %45, 1
  br label %pm_location_new.exit

47:                                               ; preds = %32
  %48 = tail call i64 @rb_ull2inum(i64 noundef %42) #5
  br label %pm_location_new.exit

pm_location_new.exit:                             ; preds = %15, %44, %47
  %.0.i = phi i64 [ %31, %15 ], [ %46, %44 ], [ %48, %47 ]
  %49 = load ptr, ptr %11, align 8, !tbaa !14
  %50 = load ptr, ptr %13, align 8, !tbaa !15
  %51 = ptrtoint ptr %50 to i64
  %52 = ptrtoint ptr %49 to i64
  %53 = sub i64 %51, %52
  %54 = call i64 @rb_enc_str_new(ptr noundef %49, i64 noundef %53, ptr noundef %2) #5
  br i1 %4, label %55, label %57

55:                                               ; preds = %pm_location_new.exit
  %56 = call i64 @rb_obj_freeze(i64 noundef %54) #5
  br label %57

57:                                               ; preds = %55, %pm_location_new.exit
  call void @llvm.lifetime.start.p0(i64 32, ptr nonnull %7) #5
  store i64 %3, ptr %7, align 16, !tbaa !16
  %58 = getelementptr inbounds nuw i8, ptr %7, i64 8
  %59 = call i64 @rb_id2sym(i64 noundef %10) #5
  store i64 %59, ptr %58, align 8, !tbaa !16
  %60 = getelementptr inbounds nuw i8, ptr %7, i64 16
  store i64 %54, ptr %60, align 16, !tbaa !16
  %61 = getelementptr inbounds nuw i8, ptr %7, i64 24
  store i64 %.0.i, ptr %61, align 8, !tbaa !16
  %62 = load i64, ptr @rb_cPrismToken, align 8, !tbaa !16
  %63 = call i64 @rb_class_new_instance(i32 noundef 4, ptr noundef nonnull %7, i64 noundef %62) #5
  br i1 %4, label %64, label %66

64:                                               ; preds = %57
  %65 = call i64 @rb_obj_freeze(i64 noundef %63) #5
  br label %66

66:                                               ; preds = %64, %57
  call void @llvm.lifetime.end.p0(i64 32, ptr nonnull %7) #5
  ret i64 %63
}